target datalayout = "e-m:e-p270:32:32-p271:32:32-p272:64:64-i64:64-i128:128-f80:128-n8:16:32:64-S128"
target triple = "x86_64-pc-linux-gnu"

%struct._packet_info = type { ptr, ptr, i32, i32, %struct.nstime_t, %struct.nstime_t, %struct.nstime_t, i8, ptr, ptr, ptr, ptr, %struct._address, %struct._address, %struct._address, %struct._address, %struct._address, %struct._address, i32, ptr, i8, [3 x i8], %struct.anon.1, i32, i32, i32, i32, ptr, i8, ptr, ptr, i16, i16, i32, i32, i16, i32, i32, ptr, ptr, ptr, i8, i8, i16, i16, i16, i32, i16, i16, ptr, ptr, ptr, ptr, ptr, i32, i32 }
%struct.nstime_t = type { i64, i32 }
%struct._address = type { i32, i32, ptr, ptr }
%struct.anon.1 = type { i8, [3 x i8] }

@hf_amqp_method_queue_bind_ticket = internal global i32 0, align 4
@hf_amqp_method_queue_bind_queue = internal global i32 0, align 4
@hf_amqp_method_queue_bind_exchange = internal global i32 0, align 4
@hf_amqp_method_queue_bind_routing_key = internal global i32 0, align 4
@hf_amqp_method_queue_bind_nowait = internal global i32 0, align 4
@hf_amqp_method_queue_bind_arguments = internal global i32 0, align 4
@.str.1475 = private unnamed_addr constant [6 x i8] c"x=%s \00", align 1
@.str.1478 = private unnamed_addr constant [7 x i8] c"bk=%s \00", align 1
@.str.1479 = private unnamed_addr constant [6 x i8] c"q=%s \00", align 1

; Function Attrs: null_pointer_is_valid sspstrong uwtable
define internal i32 @dissect_amqp_0_9_method_queue_bind(ptr noundef %0, ptr noundef %1, i32 noundef %2, ptr noundef %3) #0 {
  %5 = alloca ptr, align 8
  %6 = alloca ptr, align 8
  %7 = alloca i32, align 4
  %8 = alloca ptr, align 8
  %9 = alloca ptr, align 8
  %10 = alloca ptr, align 8
  store ptr %0, ptr %5, align 8
  store ptr %1, ptr %6, align 8
  store i32 %2, ptr %7, align 4
  store ptr %3, ptr %8, align 8
  call void @llvm.lifetime.start.p0(i64 8, ptr %9) #11
  call void @llvm.lifetime.start.p0(i64 8, ptr %10) #11
  %11 = load ptr, ptr %8, align 8
  %12 = load i32, ptr @hf_amqp_method_queue_bind_ticket, align 4
  %13 = load ptr, ptr %5, align 8
  %14 = load i32, ptr %7, align 4
  %15 = call ptr @proto_tree_add_item(ptr noundef %11, i32 noundef %12, ptr noundef %13, i32 noundef %14, i32 noundef 2, i32 noundef 0)
  %16 = load i32, ptr %7, align 4
  %17 = add i32 %16, 2
  store i32 %17, ptr %7, align 4
  %18 = load ptr, ptr %8, align 8
  %19 = load i32, ptr @hf_amqp_method_queue_bind_queue, align 4
  %20 = load ptr, ptr %5, align 8
  %21 = load i32, ptr %7, align 4
  %22 = add i32 %21, 1
  %23 = load ptr, ptr %5, align 8
  %24 = load i32, ptr %7, align 4
  %25 = call zeroext i8 @tvb_get_uint8(ptr noundef %23, i32 noundef %24)
  %26 = zext i8 %25 to i32
  %27 = load ptr, ptr %6, align 8
  %28 = getelementptr inbounds nuw %struct._packet_info, ptr %27, i32 0, i32 51
  %29 = load ptr, ptr %28, align 8
  %30 = call ptr @proto_tree_add_item_ret_string(ptr noundef %18, i32 noundef %19, ptr noundef %20, i32 noundef %22, i32 noundef %26, i32 noundef 0, ptr noundef %29, ptr noundef %10)
  %31 = load ptr, ptr %6, align 8
  %32 = getelementptr inbounds nuw %struct._packet_info, ptr %31, i32 0, i32 1
  %33 = load ptr, ptr %32, align 8
  %34 = load ptr, ptr %10, align 8
  call void (ptr, i32, ptr, ...) @col_append_fstr(ptr noundef %33, i32 noundef 25, ptr noundef @.str.1479, ptr noundef %34)
  %35 = load ptr, ptr %5, align 8
  %36 = load i32, ptr %7, align 4
  %37 = call zeroext i8 @tvb_get_uint8(ptr noundef %35, i32 noundef %36)
  %38 = zext i8 %37 to i32
  %39 = add i32 1, %38
  %40 = load i32, ptr %7, align 4
  %41 = add i32 %40, %39
  store i32 %41, ptr %7, align 4
  %42 = load ptr, ptr %8, align 8
  %43 = load i32, ptr @hf_amqp_method_queue_bind_exchange, align 4
  %44 = load ptr, ptr %5, align 8
  %45 = load i32, ptr %7, align 4
  %46 = add i32 %45, 1
  %47 = load ptr, ptr %5, align 8
  %48 = load i32, ptr %7, align 4
  %49 = call zeroext i8 @tvb_get_uint8(ptr noundef %47, i32 noundef %48)
  %50 = zext i8 %49 to i32
  %51 = load ptr, ptr %6, align 8
  %52 = getelementptr inbounds nuw %struct._packet_info, ptr %51, i32 0, i32 51
  %53 = load ptr, ptr %52, align 8
  %54 = call ptr @proto_tree_add_item_ret_string(ptr noundef %42, i32 noundef %43, ptr noundef %44, i32 noundef %46, i32 noundef %50, i32 noundef 0, ptr noundef %53, ptr noundef %10)
  %55 = load ptr, ptr %6, align 8
  %56 = getelementptr inbounds nuw %struct._packet_info, ptr %55, i32 0, i32 1
  %57 = load ptr, ptr %56, align 8
  %58 = load ptr, ptr %10, align 8
  call void (ptr, i32, ptr, ...) @col_append_fstr(ptr noundef %57, i32 noundef 25, ptr noundef @.str.1475, ptr noundef %58)
  %59 = load ptr, ptr %5, align 8
  %60 = load i32, ptr %7, align 4
  %61 = call zeroext i8 @tvb_get_uint8(ptr noundef %59, i32 noundef %60)
  %62 = zext i8 %61 to i32
  %63 = add i32 1, %62
  %64 = load i32, ptr %7, align 4
  %65 = add i32 %64, %63
  store i32 %65, ptr %7, align 4
  %66 = load ptr, ptr %8, align 8
  %67 = load i32, ptr @hf_amqp_method_queue_bind_routing_key, align 4
  %68 = load ptr, ptr %5, align 8
  %69 = load i32, ptr %7, align 4
  %70 = add i32 %69, 1
  %71 = load ptr, ptr %5, align 8
  %72 = load i32, ptr %7, align 4
  %73 = call zeroext i8 @tvb_get_uint8(ptr noundef %71, i32 noundef %72)
  %74 = zext i8 %73 to i32
  %75 = load ptr, ptr %6, align 8
  %76 = getelementptr inbounds nuw %struct._packet_info, ptr %75, i32 0, i32 51
  %77 = load ptr, ptr %76, align 8
  %78 = call ptr @proto_tree_add_item_ret_string(ptr noundef %66, i32 noundef %67, ptr noundef %68, i32 noundef %70, i32 noundef %74, i32 noundef 0, ptr noundef %77, ptr noundef %10)
  %79 = load ptr, ptr %6, align 8
  %80 = getelementptr inbounds nuw %struct._packet_info, ptr %79, i32 0, i32 1
  %81 = load ptr, ptr %80, align 8
  %82 = load ptr, ptr %10, align 8
  call void (ptr, i32, ptr, ...) @col_append_fstr(ptr noundef %81, i32 noundef 25, ptr noundef @.str.1478, ptr noundef %82)
  %83 = load ptr, ptr %5, align 8
  %84 = load i32, ptr %7, align 4
  %85 = call zeroext i8 @tvb_get_uint8(ptr noundef %83, i32 noundef %84)
  %86 = zext i8 %85 to i32
  %87 = add i32 1, %86
  %88 = load i32, ptr %7, align 4
  %89 = add i32 %88, %87
  store i32 %89, ptr %7, align 4
  %90 = load ptr, ptr %8, align 8
  %91 = load i32, ptr @hf_amqp_method_queue_bind_nowait, align 4
  %92 = load ptr, ptr %5, align 8
  %93 = load i32, ptr %7, align 4
  %94 = call ptr @proto_tree_add_item(ptr noundef %90, i32 noundef %91, ptr noundef %92, i32 noundef %93, i32 noundef 1, i32 noundef 0)
  %95 = load i32, ptr %7, align 4
  %96 = add i32 %95, 1
  store i32 %96, ptr %7, align 4
  %97 = load ptr, ptr %8, align 8
  %98 = load i32, ptr @hf_amqp_method_queue_bind_arguments, align 4
  %99 = load ptr, ptr %5, align 8
  %100 = load i32, ptr %7, align 4
  %101 = add i32 %100, 4
  %102 = load ptr, ptr %5, align 8
  %103 = load i32, ptr %7, align 4
  %104 = call i32 @tvb_get_ntohl(ptr noundef %102, i32 noundef %103)
  %105 = call ptr @proto_tree_add_item(ptr noundef %97, i32 noundef %98, ptr noundef %99, i32 noundef %101, i32 noundef %104, i32 noundef 0)
  store ptr %105, ptr %9, align 8
  %106 = load ptr, ptr %5, align 8
  %107 = load ptr, ptr %6, align 8
  %108 = load i32, ptr %7, align 4
  %109 = add i32 %108, 4
  %110 = load ptr, ptr %5, align 8
  %111 = load i32, ptr %7, align 4
  %112 = call i32 @tvb_get_ntohl(ptr noundef %110, i32 noundef %111)
  %113 = load ptr, ptr %9, align 8
  call void @dissect_amqp_0_9_field_table(ptr noundef %106, ptr noundef %107, i32 noundef %109, i32 noundef %112, ptr noundef %113)
  %114 = load ptr, ptr %5, align 8
  %115 = load i32, ptr %7, align 4
  %116 = call i32 @tvb_get_ntohl(ptr noundef %114, i32 noundef %115)
  %117 = add i32 4, %116
  %118 = load i32, ptr %7, align 4
  %119 = add i32 %118, %117
  store i32 %119, ptr %7, align 4
  %120 = load i32, ptr %7, align 4
  call void @llvm.lifetime.end.p0(i64 8, ptr %10) #11
  call void @llvm.lifetime.end.p0(i64 8, ptr %9) #11
  ret i32 %120
}